target datalayout = "e-m:e-p270:32:32-p271:32:32-p272:64:64-i64:64-i128:128-f80:128-n8:16:32:64-S128"
target triple = "x86_64-pc-linux-gnu"

%struct.GCRef = type { i64 }
%struct.global_State = type { ptr, ptr, %struct.GCState, %struct.GCstr, i8, i8, i8, i8, %struct.StrInternState, i32, %struct.GCRef, %struct.SBuf, %union.TValue, %union.TValue, %struct.Node, %union.TValue, %struct.GCupval, i32, i32, ptr, ptr, ptr, i32, i32, %struct.GCRef, %struct.MRef, %struct.MRef, %struct.PRNGState, [39 x %struct.GCRef] }
%struct.GCState = type { i64, i64, i8, i8, i8, i8, i32, %struct.GCRef, %struct.MRef, %struct.GCRef, %struct.GCRef, %struct.GCRef, %struct.GCRef, i64, i64, i32, i32, %struct.MRef }
%struct.GCstr = type { %struct.GCRef, i8, i8, i8, i8, i32, i32, i32 }
%struct.StrInternState = type { ptr, i32, i32, i32, i8, i8, i8, i8, i64 }
%struct.SBuf = type { ptr, ptr, ptr, %struct.MRef }
%struct.Node = type { %union.TValue, %union.TValue, %struct.MRef }
%union.TValue = type { i64 }
%struct.GCupval = type { %struct.GCRef, i8, i8, i8, i8, %union.anon, %struct.MRef, i32 }
%union.anon = type { %struct.anon.1 }
%struct.anon.1 = type { %struct.GCRef, %struct.GCRef }
%struct.MRef = type { i64 }
%struct.PRNGState = type { [4 x i64] }
%struct.lua_State = type { %struct.GCRef, i8, i8, i8, i8, %struct.MRef, %struct.GCRef, ptr, ptr, %struct.MRef, %struct.MRef, %struct.GCRef, %struct.GCRef, ptr, i32 }
%struct.anon.0 = type { i32, i32 }

; Function Attrs: alwaysinline nounwind uwtable
define internal void @lj_buf_reset(ptr noundef %0) #5 {
  %2 = alloca ptr, align 8
  store ptr %0, ptr %2, align 8, !tbaa !87
  %3 = load ptr, ptr %2, align 8, !tbaa !87
  %4 = getelementptr inbounds nuw %struct.SBuf, ptr %3, i32 0, i32 2
  %5 = load ptr, ptr %4, align 8, !tbaa !95
  %6 = load ptr, ptr %2, align 8, !tbaa !87
  %7 = getelementptr inbounds nuw %struct.SBuf, ptr %6, i32 0, i32 0
  store ptr %5, ptr %7, align 8, !tbaa !93
  ret void
}

; Function Attrs: alwaysinline nounwind uwtable
define internal ptr @lj_buf_str(ptr noundef %0, ptr noundef %1) #5 {
  %3 = alloca ptr, align 8
  %4 = alloca ptr, align 8
  store ptr %0, ptr %3, align 8, !tbaa !57
  store ptr %1, ptr %4, align 8, !tbaa !87
  %5 = load ptr, ptr %3, align 8, !tbaa !57
  %6 = load ptr, ptr %4, align 8, !tbaa !87
  %7 = getelementptr inbounds nuw %struct.SBuf, ptr %6, i32 0, i32 2
  %8 = load ptr, ptr %7, align 8, !tbaa !95
  %9 = load ptr, ptr %4, align 8, !tbaa !87
  %10 = getelementptr inbounds nuw %struct.SBuf, ptr %9, i32 0, i32 0
  %11 = load ptr, ptr %10, align 8, !tbaa !93
  %12 = load ptr, ptr %4, align 8, !tbaa !87
  %13 = getelementptr inbounds nuw %struct.SBuf, ptr %12, i32 0, i32 2
  %14 = load ptr, ptr %13, align 8, !tbaa !95
  %15 = ptrtoint ptr %11 to i64
  %16 = ptrtoint ptr %14 to i64
  %17 = sub i64 %15, %16
  %18 = trunc i64 %17 to i32
  %19 = zext i32 %18 to i64
  %20 = call ptr @lj_str_new(ptr noundef %5, ptr noundef %8, i64 noundef %19)
  ret ptr %20
}

; Function Attrs: alwaysinline nounwind uwtable
define internal ptr @lj_buf_tmp_(ptr noundef %0) #5 {
  %2 = alloca ptr, align 8
  %3 = alloca ptr, align 8
  store ptr %0, ptr %2, align 8, !tbaa !57
  call void @llvm.lifetime.start.p0(i64 8, ptr %3) #8
  %4 = load ptr, ptr %2, align 8, !tbaa !57
  %5 = getelementptr inbounds nuw %struct.lua_State, ptr %4, i32 0, i32 5
  %6 = getelementptr inbounds nuw %struct.MRef, ptr %5, i32 0, i32 0
  %7 = load i64, ptr %6, align 8, !tbaa !58
  %8 = inttoptr i64 %7 to ptr
  %9 = getelementptr inbounds nuw %struct.global_State, ptr %8, i32 0, i32 11
  store ptr %9, ptr %3, align 8, !tbaa !87
  %10 = load ptr, ptr %2, align 8, !tbaa !57
  %11 = ptrtoint ptr %10 to i64
  %12 = load ptr, ptr %3, align 8, !tbaa !87
  %13 = getelementptr inbounds nuw %struct.SBuf, ptr %12, i32 0, i32 3
  %14 = getelementptr inbounds nuw %struct.MRef, ptr %13, i32 0, i32 0
  store i64 %11, ptr %14, align 8, !tbaa !94
  %15 = load ptr, ptr %3, align 8, !tbaa !87
  call void @lj_buf_reset(ptr noundef %15)
  %16 = load ptr, ptr %3, align 8, !tbaa !87
  call void @llvm.lifetime.end.p0(i64 8, ptr %3) #8
  ret ptr %16
}

; Function Attrs: nounwind uwtable
define hidden ptr @lj_ctype_repr_complex(ptr noundef %0, ptr noundef %1, i32 noundef %2) #0 {
  %4 = alloca ptr, align 8
  %5 = alloca ptr, align 8
  %6 = alloca i32, align 4
  %7 = alloca ptr, align 8
  %8 = alloca %union.TValue, align 8
  %9 = alloca %union.TValue, align 8
  store ptr %0, ptr %4, align 8, !tbaa !57
  store ptr %1, ptr %5, align 8, !tbaa !86
  store i32 %2, ptr %6, align 4, !tbaa !21
  call void @llvm.lifetime.start.p0(i64 8, ptr %7) #8
  %10 = load ptr, ptr %4, align 8, !tbaa !57
  %11 = call ptr @lj_buf_tmp_(ptr noundef %10)
  store ptr %11, ptr %7, align 8, !tbaa !87
  call void @llvm.lifetime.start.p0(i64 8, ptr %8) #8
  call void @llvm.lifetime.start.p0(i64 8, ptr %9) #8
  %12 = load i32, ptr %6, align 4, !tbaa !21
  %13 = zext i32 %12 to i64
  %14 = icmp eq i64 %13, 16
  br i1 %14, label %15, label %21

15:                                               ; preds = %3
  %16 = load ptr, ptr %5, align 8, !tbaa !86
  %17 = load double, ptr %16, align 8, !tbaa !89
  store double %17, ptr %8, align 8, !tbaa !55
  %18 = load ptr, ptr %5, align 8, !tbaa !86
  %19 = getelementptr inbounds double, ptr %18, i64 1
  %20 = load double, ptr %19, align 8, !tbaa !89
  store double %20, ptr %9, align 8, !tbaa !55
  br label %29

21:                                               ; preds = %3
  %22 = load ptr, ptr %5, align 8, !tbaa !86
  %23 = load float, ptr %22, align 4, !tbaa !91
  %24 = fpext float %23 to double
  store double %24, ptr %8, align 8, !tbaa !55
  %25 = load ptr, ptr %5, align 8, !tbaa !86
  %26 = getelementptr inbounds float, ptr %25, i64 1
  %27 = load float, ptr %26, align 4, !tbaa !91
  %28 = fpext float %27 to double
  store double %28, ptr %9, align 8, !tbaa !55
  br label %29

29:                                               ; preds = %21, %15
  %30 = load ptr, ptr %7, align 8, !tbaa !87
  %31 = load double, ptr %8, align 8, !tbaa !55
  %32 = call ptr @lj_strfmt_putfnum(ptr noundef %30, i32 noundef 251658293, double noundef %31)
  %33 = getelementptr inbounds nuw %struct.anon.0, ptr %9, i32 0, i32 1
  %34 = load i32, ptr %33, align 4, !tbaa !55
  %35 = and i32 %34, -2147483648
  %36 = icmp ne i32 %35, 0
  br i1 %36, label %37, label %41

37:                                               ; preds = %29
  %38 = load double, ptr %9, align 8, !tbaa !55
  %39 = load double, ptr %9, align 8, !tbaa !55
  %40 = fcmp une double %38, %39
  br i1 %40, label %41, label %44

41:                                               ; preds = %37, %29
  %42 = load ptr, ptr %7, align 8, !tbaa !87
  %43 = call ptr @lj_buf_putchar(ptr noundef %42, i32 noundef 43)
  br label %44

44:                                               ; preds = %41, %37
  %45 = load ptr, ptr %7, align 8, !tbaa !87
  %46 = load double, ptr %9, align 8, !tbaa !55
  %47 = call ptr @lj_strfmt_putfnum(ptr noundef %45, i32 noundef 251658293, double noundef %46)
  %48 = load ptr, ptr %7, align 8, !tbaa !87
  %49 = load ptr, ptr %7, align 8, !tbaa !87
  %50 = getelementptr inbounds nuw %struct.SBuf, ptr %49, i32 0, i32 0
  %51 = load ptr, ptr %50, align 8, !tbaa !93
  %52 = getelementptr inbounds i8, ptr %51, i64 -1
  %53 = load i8, ptr %52, align 1, !tbaa !55
  %54 = sext i8 %53 to i32
  %55 = icmp sge i32 %54, 97
  %56 = select i1 %55, i32 73, i32 105
  %57 = call ptr @lj_buf_putchar(ptr noundef %48, i32 noundef %56)
  %58 = load ptr, ptr %4, align 8, !tbaa !57
  %59 = load ptr, ptr %7, align 8, !tbaa !87
  %60 = call ptr @lj_buf_str(ptr noundef %58, ptr noundef %59)
  call void @llvm.lifetime.end.p0(i64 8, ptr %9) #8
  call void @llvm.lifetime.end.p0(i64 8, ptr %8) #8
  call void @llvm.lifetime.end.p0(i64 8, ptr %7) #8
  ret ptr %60
}