; Function Attrs: nounwind uwtable
define hidden ptr @lj_ctype_repr_complex(ptr noundef %0, ptr noundef readonly captures(none) %1, i32 noundef %2) local_unnamed_addr #0 {
  %4 = getelementptr inbounds nuw i8, ptr %0, i64 16
  %5 = load i64, ptr %4, align 8, !tbaa !47
  %6 = inttoptr i64 %5 to ptr
  %7 = getelementptr inbounds nuw i8, ptr %6, i64 200
  %8 = ptrtoint ptr %0 to i64
  %9 = getelementptr inbounds nuw i8, ptr %6, i64 224
  store i64 %8, ptr %9, align 8, !tbaa !76
  %10 = getelementptr inbounds nuw i8, ptr %6, i64 216
  %11 = load ptr, ptr %10, align 8, !tbaa !77
  store ptr %11, ptr %7, align 8, !tbaa !78
  %12 = icmp eq i32 %2, 16
  br i1 %12, label %13, label %17

13:                                               ; preds = %3
  %14 = load double, ptr %1, align 8, !tbaa !79
  %15 = getelementptr inbounds nuw i8, ptr %1, i64 8
  %16 = load double, ptr %15, align 8, !tbaa !79
  br label %23

17:                                               ; preds = %3
  %18 = load float, ptr %1, align 4, !tbaa !81
  %19 = fpext float %18 to double
  %20 = getelementptr inbounds nuw i8, ptr %1, i64 4
  %21 = load float, ptr %20, align 4, !tbaa !81
  %22 = fpext float %21 to double
  br label %23

23:                                               ; preds = %17, %13
  %.sroa.03.0 = phi double [ %14, %13 ], [ %19, %17 ]
  %.sroa.0.0 = phi double [ %16, %13 ], [ %22, %17 ]
  %24 = tail call ptr @lj_strfmt_putfnum(ptr noundef nonnull %7, i32 noundef 251658293, double noundef %.sroa.03.0) #14
  %25 = bitcast double %.sroa.0.0 to i64
  %.not = icmp sgt i64 %25, -1
  %26 = fcmp uno double %.sroa.0.0, 0.000000e+00
  %or.cond = or i1 %26, %.not
  br i1 %or.cond, label %27, label %29

27:                                               ; preds = %23
  %28 = tail call ptr @lj_buf_putchar(ptr noundef nonnull %7, i32 noundef 43) #14
  br label %29

29:                                               ; preds = %23, %27
  %30 = tail call ptr @lj_strfmt_putfnum(ptr noundef nonnull %7, i32 noundef 251658293, double noundef %.sroa.0.0) #14
  %31 = load ptr, ptr %7, align 8, !tbaa !78
  %32 = getelementptr inbounds i8, ptr %31, i64 -1
  %33 = load i8, ptr %32, align 1, !tbaa !45
  %34 = icmp sgt i8 %33, 96
  %35 = select i1 %34, i32 73, i32 105
  %36 = tail call ptr @lj_buf_putchar(ptr noundef nonnull %7, i32 noundef %35) #14
  %37 = load ptr, ptr %10, align 8, !tbaa !77
  %38 = load ptr, ptr %7, align 8, !tbaa !78
  %39 = ptrtoint ptr %38 to i64
  %40 = ptrtoint ptr %37 to i64
  %41 = sub i64 %39, %40
  %42 = and i64 %41, 4294967295
  %43 = tail call ptr @lj_str_new(ptr noundef nonnull %0, ptr noundef %37, i64 noundef %42) #14
  ret ptr %43
}